; Function Attrs: nounwind uwtable
define noalias nonnull ptr @l_Lean_Meta_Grind_Arith_CommRing_Null_PreNullCert_unit(ptr noundef %0, ptr noundef %1) local_unnamed_addr #1 {
  %3 = load ptr, ptr @l_Lean_Meta_Grind_Arith_CommRing_Null_PreNullCert_unit___closed__1, align 8, !tbaa !11
  %4 = tail call ptr @lean_mk_array(ptr noundef %1, ptr noundef %3) #6
  %5 = load ptr, ptr @l_Lean_Meta_Grind_Arith_CommRing_Null_PreNullCert_unit___closed__2, align 8, !tbaa !11
  %6 = ptrtoint ptr %0 to i64
  %7 = and i64 %6, 1
  %.not.i = icmp eq i64 %7, 0
  br i1 %.not.i, label %.thread.i, label %8

8:                                                ; preds = %2
  %9 = lshr i64 %6, 1
  %10 = getelementptr i8, ptr %4, i64 8
  %.val.i = load i64, ptr %10, align 8, !tbaa !15
  %11 = icmp ult i64 %9, %.val.i
  br i1 %11, label %12, label %.thread.i

12:                                               ; preds = %8
  %.val.i.i.i = load i32, ptr %4, align 4, !tbaa !6
  %13 = icmp eq i32 %.val.i.i.i, 1
  br i1 %13, label %lean_ensure_exclusive_array.exit.i.i, label %14

14:                                               ; preds = %12
  %15 = tail call ptr @lean_copy_expand_array(ptr noundef nonnull %4, i1 noundef zeroext false) #6
  br label %lean_ensure_exclusive_array.exit.i.i

lean_ensure_exclusive_array.exit.i.i:             ; preds = %14, %12
  %.0.i.i.i = phi ptr [ %15, %14 ], [ %4, %12 ]
  %16 = getelementptr inbounds nuw i8, ptr %.0.i.i.i, i64 24
  %17 = getelementptr inbounds nuw ptr, ptr %16, i64 %9
  %18 = load ptr, ptr %17, align 8, !tbaa !11
  %19 = ptrtoint ptr %18 to i64
  %20 = and i64 %19, 1
  %.not.i.i = icmp eq i64 %20, 0
  br i1 %.not.i.i, label %21, label %28

21:                                               ; preds = %lean_ensure_exclusive_array.exit.i.i
  %22 = load i32, ptr %18, align 4, !tbaa !6
  %23 = icmp sgt i32 %22, 1
  br i1 %23, label %24, label %26, !prof !5

24:                                               ; preds = %21
  %25 = add nsw i32 %22, -1
  store i32 %25, ptr %18, align 4, !tbaa !6
  br label %28

26:                                               ; preds = %21
  %.not.i.i.i = icmp eq i32 %22, 0
  br i1 %.not.i.i.i, label %28, label %27

27:                                               ; preds = %26
  tail call void @lean_dec_ref_cold(ptr noundef nonnull %18) #6
  br label %28

28:                                               ; preds = %27, %26, %24, %lean_ensure_exclusive_array.exit.i.i
  store ptr %5, ptr %17, align 8, !tbaa !11
  br label %lean_array_set.exit

.thread.i:                                        ; preds = %8, %2
  %29 = tail call ptr @lean_array_set_panic(ptr noundef %4, ptr noundef %5) #6
  br label %lean_array_set.exit

lean_array_set.exit:                              ; preds = %28, %.thread.i
  %.1.i = phi ptr [ %.0.i.i.i, %28 ], [ %29, %.thread.i ]
  %30 = load ptr, ptr @l_Lean_Grind_CommRing_Mon_denoteExpr___at_Lean_Meta_Grind_Arith_CommRing_getPolyConst___spec__4___closed__1, align 8, !tbaa !11
  tail call void @lean_inc_heartbeat() #6
  %31 = tail call noalias ptr @mi_malloc_small(i64 noundef 24) #6
  %32 = icmp eq ptr %31, null
  br i1 %32, label %33, label %lean_alloc_ctor.exit

33:                                               ; preds = %lean_array_set.exit
  tail call void @lean_internal_panic_out_of_memory() #7
  unreachable

lean_alloc_ctor.exit:                             ; preds = %lean_array_set.exit
  %34 = getelementptr inbounds nuw i8, ptr %31, i64 4
  store i32 1, ptr %31, align 4, !tbaa !6
  store i32 131096, ptr %34, align 4
  %35 = getelementptr inbounds nuw i8, ptr %31, i64 8
  store ptr %.1.i, ptr %35, align 8, !tbaa !11
  %36 = getelementptr inbounds nuw i8, ptr %31, i64 16
  store ptr %30, ptr %36, align 8, !tbaa !11
  ret ptr %31
}